target datalayout = "e-m:e-p270:32:32-p271:32:32-p272:64:64-i64:64-i128:128-f80:128-n8:16:32:64-S128"
target triple = "x86_64-pc-linux-gnu"

%struct.Abc_BddMan_ = type { i32, i32, i32, ptr, ptr, ptr, ptr, ptr, ptr, i32, i32, i32, i32, i64 }

@.str.4 = private unnamed_addr constant [10 x i8] c"BDD %d = \00", align 1
@.str.5 = private unnamed_addr constant [2 x i8] c"\0A\00", align 1
@.str.6 = private unnamed_addr constant [12 x i8] c"Nodes = %d\0A\00", align 1

; Function Attrs: inlinehint nounwind uwtable
define internal i32 @Abc_LitNot(i32 noundef %0) #3 {
  %2 = alloca i32, align 4
  store i32 %0, ptr %2, align 4, !tbaa !3
  %3 = load i32, ptr %2, align 4, !tbaa !3
  %4 = xor i32 %3, 1
  ret i32 %4
}

; Function Attrs: inlinehint nounwind uwtable
define internal i32 @Abc_Var2Lit(i32 noundef %0, i32 noundef %1) #3 {
  %3 = alloca i32, align 4
  %4 = alloca i32, align 4
  store i32 %0, ptr %3, align 4, !tbaa !3
  store i32 %1, ptr %4, align 4, !tbaa !3
  %5 = load i32, ptr %3, align 4, !tbaa !3
  %6 = load i32, ptr %3, align 4, !tbaa !3
  %7 = add nsw i32 %5, %6
  %8 = load i32, ptr %4, align 4, !tbaa !3
  %9 = add nsw i32 %7, %8
  ret i32 %9
}

; Function Attrs: nounwind uwtable
define i32 @Abc_BddCountNodes(ptr noundef %0, i32 noundef %1) #0 {
  %3 = alloca ptr, align 8
  %4 = alloca i32, align 4
  %5 = alloca i32, align 4
  store ptr %0, ptr %3, align 8, !tbaa !7
  store i32 %1, ptr %4, align 4, !tbaa !3
  call void @llvm.lifetime.start.p0(i64 4, ptr %5) #9
  %6 = load ptr, ptr %3, align 8, !tbaa !7
  %7 = load i32, ptr %4, align 4, !tbaa !3
  %8 = call i32 @Abc_BddCount_rec(ptr noundef %6, i32 noundef %7)
  store i32 %8, ptr %5, align 4, !tbaa !3
  %9 = load ptr, ptr %3, align 8, !tbaa !7
  %10 = load i32, ptr %4, align 4, !tbaa !3
  call void @Abc_BddUnmark_rec(ptr noundef %9, i32 noundef %10)
  %11 = load i32, ptr %5, align 4, !tbaa !3
  call void @llvm.lifetime.end.p0(i64 4, ptr %5) #9
  ret i32 %11
}

; Function Attrs: nounwind uwtable
define void @Abc_BddPrint(ptr noundef %0, i32 noundef %1) #0 {
  %3 = alloca ptr, align 8
  %4 = alloca i32, align 4
  %5 = alloca ptr, align 8
  store ptr %0, ptr %3, align 8, !tbaa !7
  store i32 %1, ptr %4, align 4, !tbaa !3
  call void @llvm.lifetime.start.p0(i64 8, ptr %5) #9
  %6 = load ptr, ptr %3, align 8, !tbaa !7
  %7 = getelementptr inbounds nuw %struct.Abc_BddMan_, ptr %6, i32 0, i32 0
  %8 = load i32, ptr %7, align 8, !tbaa !10
  %9 = sext i32 %8 to i64
  %10 = mul i64 4, %9
  %11 = call noalias ptr @malloc(i64 noundef %10) #11
  %12 = load ptr, ptr %3, align 8, !tbaa !7
  %13 = getelementptr inbounds nuw %struct.Abc_BddMan_, ptr %12, i32 0, i32 0
  %14 = load i32, ptr %13, align 8, !tbaa !10
  %15 = sext i32 %14 to i64
  %16 = mul i64 4, %15
  call void @llvm.memset.p0.i64(ptr align 1 %11, i8 -1, i64 %16, i1 false)
  store ptr %11, ptr %5, align 8, !tbaa !32
  %17 = load i32, ptr %4, align 4, !tbaa !3
  %18 = call i32 (ptr, ...) @printf(ptr noundef @.str.4, i32 noundef %17)
  %19 = load ptr, ptr %3, align 8, !tbaa !7
  %20 = load i32, ptr %4, align 4, !tbaa !3
  %21 = load ptr, ptr %5, align 8, !tbaa !32
  call void @Abc_BddPrint_rec(ptr noundef %19, i32 noundef %20, ptr noundef %21)
  %22 = load ptr, ptr %5, align 8, !tbaa !32
  %23 = icmp ne ptr %22, null
  br i1 %23, label %24, label %26

24:                                               ; preds = %2
  %25 = load ptr, ptr %5, align 8, !tbaa !32
  call void @free(ptr noundef %25) #9
  store ptr null, ptr %5, align 8, !tbaa !32
  br label %27

26:                                               ; preds = %2
  br label %27

27:                                               ; preds = %26, %24
  %28 = call i32 (ptr, ...) @printf(ptr noundef @.str.5)
  call void @llvm.lifetime.end.p0(i64 8, ptr %5) #9
  ret void
}

; Function Attrs: nounwind uwtable
define i32 @Abc_BddOr(ptr noundef %0, i32 noundef %1, i32 noundef %2) #0 {
  %4 = alloca ptr, align 8
  %5 = alloca i32, align 4
  %6 = alloca i32, align 4
  store ptr %0, ptr %4, align 8, !tbaa !7
  store i32 %1, ptr %5, align 4, !tbaa !3
  store i32 %2, ptr %6, align 4, !tbaa !3
  %7 = load ptr, ptr %4, align 8, !tbaa !7
  %8 = load i32, ptr %5, align 4, !tbaa !3
  %9 = call i32 @Abc_LitNot(i32 noundef %8)
  %10 = load i32, ptr %6, align 4, !tbaa !3
  %11 = call i32 @Abc_LitNot(i32 noundef %10)
  %12 = call i32 @Abc_BddAnd(ptr noundef %7, i32 noundef %9, i32 noundef %11)
  %13 = call i32 @Abc_LitNot(i32 noundef %12)
  ret i32 %13
}

; Function Attrs: inlinehint nounwind uwtable
define internal i32 @Abc_BddIthVar(i32 noundef %0) #3 {
  %2 = alloca i32, align 4
  store i32 %0, ptr %2, align 4, !tbaa !3
  %3 = load i32, ptr %2, align 4, !tbaa !3
  %4 = add nsw i32 %3, 1
  %5 = call i32 @Abc_Var2Lit(i32 noundef %4, i32 noundef 0)
  ret i32 %5
}

; Function Attrs: nounwind uwtable
define void @Abc_BddPrintTest(ptr noundef %0) #0 {
  %2 = alloca ptr, align 8
  %3 = alloca i32, align 4
  %4 = alloca i32, align 4
  %5 = alloca i32, align 4
  %6 = alloca i32, align 4
  %7 = alloca i32, align 4
  %8 = alloca i32, align 4
  %9 = alloca i32, align 4
  store ptr %0, ptr %2, align 8, !tbaa !7
  call void @llvm.lifetime.start.p0(i64 4, ptr %3) #9
  %10 = call i32 @Abc_BddIthVar(i32 noundef 0)
  store i32 %10, ptr %3, align 4, !tbaa !3
  call void @llvm.lifetime.start.p0(i64 4, ptr %4) #9
  %11 = call i32 @Abc_BddIthVar(i32 noundef 1)
  store i32 %11, ptr %4, align 4, !tbaa !3
  call void @llvm.lifetime.start.p0(i64 4, ptr %5) #9
  %12 = call i32 @Abc_BddIthVar(i32 noundef 2)
  store i32 %12, ptr %5, align 4, !tbaa !3
  call void @llvm.lifetime.start.p0(i64 4, ptr %6) #9
  %13 = call i32 @Abc_BddIthVar(i32 noundef 3)
  store i32 %13, ptr %6, align 4, !tbaa !3
  call void @llvm.lifetime.start.p0(i64 4, ptr %7) #9
  %14 = load ptr, ptr %2, align 8, !tbaa !7
  %15 = load i32, ptr %3, align 4, !tbaa !3
  %16 = load i32, ptr %4, align 4, !tbaa !3
  %17 = call i32 @Abc_BddAnd(ptr noundef %14, i32 noundef %15, i32 noundef %16)
  store i32 %17, ptr %7, align 4, !tbaa !3
  call void @llvm.lifetime.start.p0(i64 4, ptr %8) #9
  %18 = load ptr, ptr %2, align 8, !tbaa !7
  %19 = load i32, ptr %5, align 4, !tbaa !3
  %20 = load i32, ptr %6, align 4, !tbaa !3
  %21 = call i32 @Abc_BddAnd(ptr noundef %18, i32 noundef %19, i32 noundef %20)
  store i32 %21, ptr %8, align 4, !tbaa !3
  call void @llvm.lifetime.start.p0(i64 4, ptr %9) #9
  %22 = load ptr, ptr %2, align 8, !tbaa !7
  %23 = load i32, ptr %7, align 4, !tbaa !3
  %24 = load i32, ptr %8, align 4, !tbaa !3
  %25 = call i32 @Abc_BddOr(ptr noundef %22, i32 noundef %23, i32 noundef %24)
  store i32 %25, ptr %9, align 4, !tbaa !3
  %26 = load ptr, ptr %2, align 8, !tbaa !7
  %27 = load i32, ptr %9, align 4, !tbaa !3
  call void @Abc_BddPrint(ptr noundef %26, i32 noundef %27)
  %28 = load ptr, ptr %2, align 8, !tbaa !7
  %29 = load i32, ptr %9, align 4, !tbaa !3
  %30 = call i32 @Abc_BddCountNodes(ptr noundef %28, i32 noundef %29)
  %31 = call i32 (ptr, ...) @printf(ptr noundef @.str.6, i32 noundef %30)
  call void @llvm.lifetime.end.p0(i64 4, ptr %9) #9
  call void @llvm.lifetime.end.p0(i64 4, ptr %8) #9
  call void @llvm.lifetime.end.p0(i64 4, ptr %7) #9
  call void @llvm.lifetime.end.p0(i64 4, ptr %6) #9
  call void @llvm.lifetime.end.p0(i64 4, ptr %5) #9
  call void @llvm.lifetime.end.p0(i64 4, ptr %4) #9
  call void @llvm.lifetime.end.p0(i64 4, ptr %3) #9
  ret void
}