; Function Attrs: nounwind uwtable
define void @Abc_BddPrintTest(ptr noundef %0) local_unnamed_addr #2 {
  %2 = tail call i32 @Abc_BddAnd(ptr noundef %0, i32 noundef 2, i32 noundef 4)
  %3 = tail call i32 @Abc_BddAnd(ptr noundef %0, i32 noundef 6, i32 noundef 8)
  %4 = xor i32 %2, 1
  %5 = xor i32 %3, 1
  %6 = tail call i32 @Abc_BddAnd(ptr noundef %0, i32 noundef %4, i32 noundef %5)
  %7 = xor i32 %6, 1
  %8 = load i32, ptr %0, align 8, !tbaa !3
  %9 = sext i32 %8 to i64
  %10 = shl nsw i64 %9, 2
  %11 = tail call noalias ptr @malloc(i64 noundef %10) #14
  tail call void @llvm.memset.p0.i64(ptr align 1 %11, i8 -1, i64 %10, i1 false)
  %12 = tail call i32 (ptr, ...) @printf(ptr noundef nonnull dereferenceable(1) @.str.4, i32 noundef %7)
  tail call void @Abc_BddPrint_rec(ptr noundef nonnull %0, i32 noundef %7, ptr noundef %11)
  %.not.i = icmp eq ptr %11, null
  br i1 %.not.i, label %Abc_BddPrint.exit, label %13

13:                                               ; preds = %1
  tail call void @free(ptr noundef nonnull %11) #13
  br label %Abc_BddPrint.exit

Abc_BddPrint.exit:                                ; preds = %1, %13
  %putchar.i = tail call i32 @putchar(i32 10)
  %14 = tail call i32 @Abc_BddCount_rec(ptr noundef nonnull readonly %0, i32 noundef %7)
  tail call void @Abc_BddUnmark_rec(ptr noundef nonnull readonly %0, i32 noundef %7)
  %15 = tail call i32 (ptr, ...) @printf(ptr noundef nonnull dereferenceable(1) @.str.6, i32 noundef %14)
  ret void
}